ARM GAS  C:\Users\BRIAN~1.SEA\AppData\Local\Temp\ccmReHVc.s 			page 1


   1              		.syntax unified
   2              		.cpu cortex-m3
   3              		.fpu softvfp
   4              		.eabi_attribute 20, 1
   5              		.eabi_attribute 21, 1
   6              		.eabi_attribute 23, 3
   7              		.eabi_attribute 24, 1
   8              		.eabi_attribute 25, 1
   9              		.eabi_attribute 26, 1
  10              		.eabi_attribute 30, 1
  11              		.eabi_attribute 34, 1
  12              		.eabi_attribute 18, 4
  13              		.thumb
  14              		.syntax unified
  15              		.file	"eeprom_amc.c"
  16              		.text
  17              	.Ltext0:
  18              		.cfi_sections	.debug_frame
  19              		.section	.text.eepromFloatToByteArray,"ax",%progbits
  20              		.align	2
  21              		.thumb
  22              		.thumb_func
  23              		.type	eepromFloatToByteArray, %function
  24              	eepromFloatToByteArray:
  25              	.LFB69:
  26              		.file 1 "..\\AMC_Lib\\src\\eeprom_amc.c"
   1:..\AMC_Lib\src/eeprom_amc.c **** /*------------------------------------------------------------------------------
   2:..\AMC_Lib\src/eeprom_amc.c **** 
   3:..\AMC_Lib\src/eeprom_amc.c **** 	Filename:	eeprom.c
   4:..\AMC_Lib\src/eeprom_amc.c **** 
   5:..\AMC_Lib\src/eeprom_amc.c **** 	Authors:	Brian Seaholm of Resodyn Acoustic Mixers (Copywrite 2013)
   6:..\AMC_Lib\src/eeprom_amc.c **** 
   7:..\AMC_Lib\src/eeprom_amc.c **** 	Purpose:	This implementation file manages reading and writing to the EEPROM
   8:..\AMC_Lib\src/eeprom_amc.c **** 				for infrequently changing non-volatile values
   9:..\AMC_Lib\src/eeprom_amc.c **** 
  10:..\AMC_Lib\src/eeprom_amc.c **** 	History:
  11:..\AMC_Lib\src/eeprom_amc.c **** 
  12:..\AMC_Lib\src/eeprom_amc.c **** 	$Log: eeprom.c $
  13:..\AMC_Lib\src/eeprom_amc.c **** 	Revision 1.0  2013/07/08 18:16:32  Brian
  14:..\AMC_Lib\src/eeprom_amc.c **** 	Initial revision
  15:..\AMC_Lib\src/eeprom_amc.c **** 
  16:..\AMC_Lib\src/eeprom_amc.c **** 
  17:..\AMC_Lib\src/eeprom_amc.c **** ------------------------------------------------------------------------------*/
  18:..\AMC_Lib\src/eeprom_amc.c **** 
  19:..\AMC_Lib\src/eeprom_amc.c **** /*------------------------------------------------------------------------------
  20:..\AMC_Lib\src/eeprom_amc.c **** 	Includes
  21:..\AMC_Lib\src/eeprom_amc.c **** ------------------------------------------------------------------------------*/
  22:..\AMC_Lib\src/eeprom_amc.c **** #include <project.h>
  23:..\AMC_Lib\src/eeprom_amc.c **** #include <stdlib.h>
  24:..\AMC_Lib\src/eeprom_amc.c **** #include <stdio.h>
  25:..\AMC_Lib\src/eeprom_amc.c **** #include "eeprom_amc.h"
  26:..\AMC_Lib\src/eeprom_amc.c **** 
  27:..\AMC_Lib\src/eeprom_amc.c **** /*------------------------------------------------------------------------------
  28:..\AMC_Lib\src/eeprom_amc.c **** 	Defines/Enumerations
  29:..\AMC_Lib\src/eeprom_amc.c **** ------------------------------------------------------------------------------*/
  30:..\AMC_Lib\src/eeprom_amc.c **** 
  31:..\AMC_Lib\src/eeprom_amc.c **** /*------------------------------------------------------------------------------
ARM GAS  C:\Users\BRIAN~1.SEA\AppData\Local\Temp\ccmReHVc.s 			page 2


  32:..\AMC_Lib\src/eeprom_amc.c **** 	Private Prototypes
  33:..\AMC_Lib\src/eeprom_amc.c **** ------------------------------------------------------------------------------*/
  34:..\AMC_Lib\src/eeprom_amc.c **** static void eepromFloatToByteArray( float floatNumber, uint8 returnArray[4] );
  35:..\AMC_Lib\src/eeprom_amc.c **** static void eepromUINT32ToByteArray( uint32 UINT32Number, uint8 returnArray[4] );
  36:..\AMC_Lib\src/eeprom_amc.c **** static float eepromReadRow( uint8 eepromRow );
  37:..\AMC_Lib\src/eeprom_amc.c **** static uint32 eepromReadRowUINT32( uint8 eepromRow );
  38:..\AMC_Lib\src/eeprom_amc.c **** static void eepromWriteRow( float floatNumber, uint8 eepromRow );
  39:..\AMC_Lib\src/eeprom_amc.c **** static void eepromWriteRowUint32( uint32 UINT32Number, uint8 eepromRow );
  40:..\AMC_Lib\src/eeprom_amc.c **** 
  41:..\AMC_Lib\src/eeprom_amc.c **** /*------------------------------------------------------------------------------
  42:..\AMC_Lib\src/eeprom_amc.c **** 	Variables
  43:..\AMC_Lib\src/eeprom_amc.c **** ------------------------------------------------------------------------------*/
  44:..\AMC_Lib\src/eeprom_amc.c **** 
  45:..\AMC_Lib\src/eeprom_amc.c **** /*-----------------------------------------------------------------------------
  46:..\AMC_Lib\src/eeprom_amc.c **** 	Public Functions
  47:..\AMC_Lib\src/eeprom_amc.c **** -----------------------------------------------------------------------------*/
  48:..\AMC_Lib\src/eeprom_amc.c **** /*-----------------------------------------------------------------------------
  49:..\AMC_Lib\src/eeprom_amc.c **** 
  50:..\AMC_Lib\src/eeprom_amc.c **** 	Function:	eeprom_Init
  51:..\AMC_Lib\src/eeprom_amc.c **** 
  52:..\AMC_Lib\src/eeprom_amc.c **** 	Synopsis:	
  53:..\AMC_Lib\src/eeprom_amc.c **** 
  54:..\AMC_Lib\src/eeprom_amc.c **** 	Parameters:	
  55:..\AMC_Lib\src/eeprom_amc.c **** 
  56:..\AMC_Lib\src/eeprom_amc.c **** 	Returns:	none
  57:..\AMC_Lib\src/eeprom_amc.c **** 
  58:..\AMC_Lib\src/eeprom_amc.c **** 	Warnings:	
  59:..\AMC_Lib\src/eeprom_amc.c **** 
  60:..\AMC_Lib\src/eeprom_amc.c **** -----------------------------------------------------------------------------*/
  61:..\AMC_Lib\src/eeprom_amc.c **** void eeprom_Init( void )
  62:..\AMC_Lib\src/eeprom_amc.c **** {
  63:..\AMC_Lib\src/eeprom_amc.c **** 	EEPROM_1_Start();
  64:..\AMC_Lib\src/eeprom_amc.c **** }
  65:..\AMC_Lib\src/eeprom_amc.c **** 
  66:..\AMC_Lib\src/eeprom_amc.c **** 
  67:..\AMC_Lib\src/eeprom_amc.c **** 
  68:..\AMC_Lib\src/eeprom_amc.c **** /*-----------------------------------------------------------------------------
  69:..\AMC_Lib\src/eeprom_amc.c **** 
  70:..\AMC_Lib\src/eeprom_amc.c **** 	Function:	eepromGetUint32
  71:..\AMC_Lib\src/eeprom_amc.c **** 
  72:..\AMC_Lib\src/eeprom_amc.c **** 	Synopsis:	
  73:..\AMC_Lib\src/eeprom_amc.c **** 
  74:..\AMC_Lib\src/eeprom_amc.c **** 	Parameters:	
  75:..\AMC_Lib\src/eeprom_amc.c **** 
  76:..\AMC_Lib\src/eeprom_amc.c **** 	Returns:	none
  77:..\AMC_Lib\src/eeprom_amc.c **** 
  78:..\AMC_Lib\src/eeprom_amc.c **** 	Warnings:	
  79:..\AMC_Lib\src/eeprom_amc.c **** 
  80:..\AMC_Lib\src/eeprom_amc.c **** -----------------------------------------------------------------------------*/
  81:..\AMC_Lib\src/eeprom_amc.c **** uint32 eepromGetUint32( uint8 eepromRow )
  82:..\AMC_Lib\src/eeprom_amc.c **** {
  83:..\AMC_Lib\src/eeprom_amc.c **** 	return eepromReadRowUINT32( eepromRow );
  84:..\AMC_Lib\src/eeprom_amc.c **** }
  85:..\AMC_Lib\src/eeprom_amc.c **** 
  86:..\AMC_Lib\src/eeprom_amc.c **** 
  87:..\AMC_Lib\src/eeprom_amc.c **** /*-----------------------------------------------------------------------------
  88:..\AMC_Lib\src/eeprom_amc.c **** 
ARM GAS  C:\Users\BRIAN~1.SEA\AppData\Local\Temp\ccmReHVc.s 			page 3


  89:..\AMC_Lib\src/eeprom_amc.c **** 	Function:	eepromSetUint32
  90:..\AMC_Lib\src/eeprom_amc.c **** 
  91:..\AMC_Lib\src/eeprom_amc.c **** 	Synopsis:	
  92:..\AMC_Lib\src/eeprom_amc.c **** 
  93:..\AMC_Lib\src/eeprom_amc.c **** 	Parameters:	
  94:..\AMC_Lib\src/eeprom_amc.c **** 
  95:..\AMC_Lib\src/eeprom_amc.c **** 	Returns:	none
  96:..\AMC_Lib\src/eeprom_amc.c **** 
  97:..\AMC_Lib\src/eeprom_amc.c **** 	Warnings:	
  98:..\AMC_Lib\src/eeprom_amc.c **** 
  99:..\AMC_Lib\src/eeprom_amc.c **** -----------------------------------------------------------------------------*/
 100:..\AMC_Lib\src/eeprom_amc.c **** void eepromSetUint32( uint32 UINT32Number, uint8 eepromRow )
 101:..\AMC_Lib\src/eeprom_amc.c **** {
 102:..\AMC_Lib\src/eeprom_amc.c **** 	eepromWriteRowUint32( UINT32Number, eepromRow );
 103:..\AMC_Lib\src/eeprom_amc.c **** }
 104:..\AMC_Lib\src/eeprom_amc.c **** /*-----------------------------------------------------------------------------
 105:..\AMC_Lib\src/eeprom_amc.c **** 
 106:..\AMC_Lib\src/eeprom_amc.c **** 	Function:	eepromGetFloat
 107:..\AMC_Lib\src/eeprom_amc.c **** 
 108:..\AMC_Lib\src/eeprom_amc.c **** 	Synopsis:	
 109:..\AMC_Lib\src/eeprom_amc.c **** 
 110:..\AMC_Lib\src/eeprom_amc.c **** 	Parameters:	
 111:..\AMC_Lib\src/eeprom_amc.c **** 
 112:..\AMC_Lib\src/eeprom_amc.c **** 	Returns:	none
 113:..\AMC_Lib\src/eeprom_amc.c **** 
 114:..\AMC_Lib\src/eeprom_amc.c **** 	Warnings:	
 115:..\AMC_Lib\src/eeprom_amc.c **** 
 116:..\AMC_Lib\src/eeprom_amc.c **** -----------------------------------------------------------------------------*/
 117:..\AMC_Lib\src/eeprom_amc.c **** float eepromGetFloat( uint8 eepromRow )
 118:..\AMC_Lib\src/eeprom_amc.c **** {
 119:..\AMC_Lib\src/eeprom_amc.c **** 	return eepromReadRow( eepromRow );
 120:..\AMC_Lib\src/eeprom_amc.c **** }
 121:..\AMC_Lib\src/eeprom_amc.c **** 
 122:..\AMC_Lib\src/eeprom_amc.c **** 
 123:..\AMC_Lib\src/eeprom_amc.c **** /*-----------------------------------------------------------------------------
 124:..\AMC_Lib\src/eeprom_amc.c **** 
 125:..\AMC_Lib\src/eeprom_amc.c **** 	Function:	eepromSetFloat
 126:..\AMC_Lib\src/eeprom_amc.c **** 
 127:..\AMC_Lib\src/eeprom_amc.c **** 	Synopsis:	
 128:..\AMC_Lib\src/eeprom_amc.c **** 
 129:..\AMC_Lib\src/eeprom_amc.c **** 	Parameters:	
 130:..\AMC_Lib\src/eeprom_amc.c **** 
 131:..\AMC_Lib\src/eeprom_amc.c **** 	Returns:	none
 132:..\AMC_Lib\src/eeprom_amc.c **** 
 133:..\AMC_Lib\src/eeprom_amc.c **** 	Warnings:	
 134:..\AMC_Lib\src/eeprom_amc.c **** 
 135:..\AMC_Lib\src/eeprom_amc.c **** -----------------------------------------------------------------------------*/
 136:..\AMC_Lib\src/eeprom_amc.c **** void eepromSetFloat( float floatNumber, uint8 eepromRow )
 137:..\AMC_Lib\src/eeprom_amc.c **** {
 138:..\AMC_Lib\src/eeprom_amc.c **** 	eepromWriteRow( floatNumber, eepromRow );
 139:..\AMC_Lib\src/eeprom_amc.c **** }
 140:..\AMC_Lib\src/eeprom_amc.c **** 
 141:..\AMC_Lib\src/eeprom_amc.c **** 
 142:..\AMC_Lib\src/eeprom_amc.c **** 
 143:..\AMC_Lib\src/eeprom_amc.c **** 
 144:..\AMC_Lib\src/eeprom_amc.c **** 
 145:..\AMC_Lib\src/eeprom_amc.c **** 
ARM GAS  C:\Users\BRIAN~1.SEA\AppData\Local\Temp\ccmReHVc.s 			page 4


 146:..\AMC_Lib\src/eeprom_amc.c **** 
 147:..\AMC_Lib\src/eeprom_amc.c **** /*-----------------------------------------------------------------------------
 148:..\AMC_Lib\src/eeprom_amc.c **** 	Private Functions
 149:..\AMC_Lib\src/eeprom_amc.c **** -----------------------------------------------------------------------------*/
 150:..\AMC_Lib\src/eeprom_amc.c **** /*-----------------------------------------------------------------------------
 151:..\AMC_Lib\src/eeprom_amc.c **** 
 152:..\AMC_Lib\src/eeprom_amc.c **** 	Function:	eepromFloatToByteArray
 153:..\AMC_Lib\src/eeprom_amc.c **** 
 154:..\AMC_Lib\src/eeprom_amc.c **** 	Synopsis:	This function takes a floating point argument and returns a 
 155:..\AMC_Lib\src/eeprom_amc.c **** 				byte array formatted correctly for EEPROM operations
 156:..\AMC_Lib\src/eeprom_amc.c **** 
 157:..\AMC_Lib\src/eeprom_amc.c **** 	Parameters:	floating point number, byte array organized with correct "endianness"
 158:..\AMC_Lib\src/eeprom_amc.c **** 
 159:..\AMC_Lib\src/eeprom_amc.c **** 	Returns:	none
 160:..\AMC_Lib\src/eeprom_amc.c **** 
 161:..\AMC_Lib\src/eeprom_amc.c **** 	Warnings:	
 162:..\AMC_Lib\src/eeprom_amc.c **** 
 163:..\AMC_Lib\src/eeprom_amc.c **** -----------------------------------------------------------------------------*/
 164:..\AMC_Lib\src/eeprom_amc.c **** static void eepromFloatToByteArray( float floatNumber, uint8 returnArray[4] )
 165:..\AMC_Lib\src/eeprom_amc.c **** {	
  27              		.loc 1 165 0
  28              		.cfi_startproc
  29              		@ args = 0, pretend = 0, frame = 0
  30              		@ frame_needed = 0, uses_anonymous_args = 0
  31              		@ link register save eliminated.
  32              	.LVL0:
 166:..\AMC_Lib\src/eeprom_amc.c **** 	uint32 floatNumber_UINT32 = *(uint32 *)&floatNumber;
 167:..\AMC_Lib\src/eeprom_amc.c **** 
 168:..\AMC_Lib\src/eeprom_amc.c **** 	/* break the float up into a uint8 array */
 169:..\AMC_Lib\src/eeprom_amc.c **** 	returnArray[0] = (uint8) 0x000000FF & (floatNumber_UINT32 >>  24);	
  33              		.loc 1 169 0
  34 0000 030E     		lsrs	r3, r0, #24
  35 0002 0B70     		strb	r3, [r1]
 170:..\AMC_Lib\src/eeprom_amc.c **** 	returnArray[1] = (uint8) 0x000000FF & (floatNumber_UINT32 >>  16);
  36              		.loc 1 170 0
  37 0004 030C     		lsrs	r3, r0, #16
  38 0006 4B70     		strb	r3, [r1, #1]
 171:..\AMC_Lib\src/eeprom_amc.c **** 	returnArray[2] = (uint8) 0x000000FF & (floatNumber_UINT32 >>  8);
  39              		.loc 1 171 0
  40 0008 030A     		lsrs	r3, r0, #8
  41 000a 8B70     		strb	r3, [r1, #2]
 172:..\AMC_Lib\src/eeprom_amc.c **** 	returnArray[3] = (uint8) 0x000000FF & floatNumber_UINT32;
  42              		.loc 1 172 0
  43 000c C870     		strb	r0, [r1, #3]
  44 000e 7047     		bx	lr
  45              		.cfi_endproc
  46              	.LFE69:
  47              		.size	eepromFloatToByteArray, .-eepromFloatToByteArray
  48              		.section	.text.eepromUINT32ToByteArray,"ax",%progbits
  49              		.align	2
  50              		.thumb
  51              		.thumb_func
  52              		.type	eepromUINT32ToByteArray, %function
  53              	eepromUINT32ToByteArray:
  54              	.LFB70:
 173:..\AMC_Lib\src/eeprom_amc.c **** 		
 174:..\AMC_Lib\src/eeprom_amc.c **** }
ARM GAS  C:\Users\BRIAN~1.SEA\AppData\Local\Temp\ccmReHVc.s 			page 5


 175:..\AMC_Lib\src/eeprom_amc.c **** /*-----------------------------------------------------------------------------
 176:..\AMC_Lib\src/eeprom_amc.c **** 
 177:..\AMC_Lib\src/eeprom_amc.c **** 	Function:	eepromUINT32ToByteArray
 178:..\AMC_Lib\src/eeprom_amc.c **** 
 179:..\AMC_Lib\src/eeprom_amc.c **** 	Synopsis:	This function takes a uint32 argument and returns a 
 180:..\AMC_Lib\src/eeprom_amc.c **** 				byte array formatted correctly for EEPROM operations
 181:..\AMC_Lib\src/eeprom_amc.c **** 
 182:..\AMC_Lib\src/eeprom_amc.c **** 	Parameters:	uint32 number, byte array organized with correct "endianness"
 183:..\AMC_Lib\src/eeprom_amc.c **** 
 184:..\AMC_Lib\src/eeprom_amc.c **** 	Returns:	none
 185:..\AMC_Lib\src/eeprom_amc.c **** 
 186:..\AMC_Lib\src/eeprom_amc.c **** 	Warnings:	
 187:..\AMC_Lib\src/eeprom_amc.c **** 
 188:..\AMC_Lib\src/eeprom_amc.c **** -----------------------------------------------------------------------------*/
 189:..\AMC_Lib\src/eeprom_amc.c **** static void eepromUINT32ToByteArray( uint32 UINT32Number, uint8 returnArray[4] )
 190:..\AMC_Lib\src/eeprom_amc.c **** {	
  55              		.loc 1 190 0
  56              		.cfi_startproc
  57              		@ args = 0, pretend = 0, frame = 0
  58              		@ frame_needed = 0, uses_anonymous_args = 0
  59              		@ link register save eliminated.
  60              	.LVL1:
 191:..\AMC_Lib\src/eeprom_amc.c **** 	/* break the uint32 up into a uint8 array */
 192:..\AMC_Lib\src/eeprom_amc.c **** 	returnArray[0] = (uint8) 0x000000FF & (UINT32Number >>  24);	
  61              		.loc 1 192 0
  62 0000 030E     		lsrs	r3, r0, #24
  63 0002 0B70     		strb	r3, [r1]
 193:..\AMC_Lib\src/eeprom_amc.c **** 	returnArray[1] = (uint8) 0x000000FF & (UINT32Number >>  16);
  64              		.loc 1 193 0
  65 0004 030C     		lsrs	r3, r0, #16
  66 0006 4B70     		strb	r3, [r1, #1]
 194:..\AMC_Lib\src/eeprom_amc.c **** 	returnArray[2] = (uint8) 0x000000FF & (UINT32Number >>  8);
  67              		.loc 1 194 0
  68 0008 030A     		lsrs	r3, r0, #8
  69 000a 8B70     		strb	r3, [r1, #2]
 195:..\AMC_Lib\src/eeprom_amc.c **** 	returnArray[3] = (uint8) 0x000000FF & UINT32Number;
  70              		.loc 1 195 0
  71 000c C870     		strb	r0, [r1, #3]
  72 000e 7047     		bx	lr
  73              		.cfi_endproc
  74              	.LFE70:
  75              		.size	eepromUINT32ToByteArray, .-eepromUINT32ToByteArray
  76              		.section	.text.eepromReadRow,"ax",%progbits
  77              		.align	2
  78              		.thumb
  79              		.thumb_func
  80              		.type	eepromReadRow, %function
  81              	eepromReadRow:
  82              	.LFB71:
 196:..\AMC_Lib\src/eeprom_amc.c **** 		
 197:..\AMC_Lib\src/eeprom_amc.c **** }
 198:..\AMC_Lib\src/eeprom_amc.c **** /*-----------------------------------------------------------------------------
 199:..\AMC_Lib\src/eeprom_amc.c **** 
 200:..\AMC_Lib\src/eeprom_amc.c **** 	Function:	eepromReadRow
 201:..\AMC_Lib\src/eeprom_amc.c **** 
 202:..\AMC_Lib\src/eeprom_amc.c **** 	Synopsis:	This function returns a floating point number from EEPROM registers
 203:..\AMC_Lib\src/eeprom_amc.c **** 
ARM GAS  C:\Users\BRIAN~1.SEA\AppData\Local\Temp\ccmReHVc.s 			page 6


 204:..\AMC_Lib\src/eeprom_amc.c **** 	Parameters:	eeprom row of data to return
 205:..\AMC_Lib\src/eeprom_amc.c **** 
 206:..\AMC_Lib\src/eeprom_amc.c **** 	Returns:	floating point
 207:..\AMC_Lib\src/eeprom_amc.c **** 
 208:..\AMC_Lib\src/eeprom_amc.c **** 	Warnings:	
 209:..\AMC_Lib\src/eeprom_amc.c **** 
 210:..\AMC_Lib\src/eeprom_amc.c **** -----------------------------------------------------------------------------*/
 211:..\AMC_Lib\src/eeprom_amc.c **** static float eepromReadRow( uint8 eepromRow )
 212:..\AMC_Lib\src/eeprom_amc.c **** {	
  83              		.loc 1 212 0
  84              		.cfi_startproc
  85              		@ args = 0, pretend = 0, frame = 8
  86              		@ frame_needed = 0, uses_anonymous_args = 0
  87              		@ link register save eliminated.
  88              	.LVL2:
  89 0000 82B0     		sub	sp, sp, #8
  90              		.cfi_def_cfa_offset 8
  91              	.LVL3:
 213:..\AMC_Lib\src/eeprom_amc.c **** 
 214:..\AMC_Lib\src/eeprom_amc.c ****     reg8 * EepromPointer;
 215:..\AMC_Lib\src/eeprom_amc.c **** 	uint8 eepromArray[4];
 216:..\AMC_Lib\src/eeprom_amc.c **** 		
 217:..\AMC_Lib\src/eeprom_amc.c **** 	/* setup the pointer for getting the right value in EEPROM */
 218:..\AMC_Lib\src/eeprom_amc.c ****     EepromPointer = (reg8 *) CYDEV_EE_BASE;
 219:..\AMC_Lib\src/eeprom_amc.c **** 	EepromPointer = EepromPointer + (CYDEV_EEPROM_ROW_SIZE * eepromRow);
  92              		.loc 1 219 0
  93 0002 0001     		lsls	r0, r0, #4
  94              	.LVL4:
  95 0004 00F18040 		add	r0, r0, #1073741824
  96 0008 00F50040 		add	r0, r0, #32768
  97              	.LVL5:
 220:..\AMC_Lib\src/eeprom_amc.c **** 		
 221:..\AMC_Lib\src/eeprom_amc.c **** 	/* reorder the return for the correct float conversion */
 222:..\AMC_Lib\src/eeprom_amc.c **** 	eepromArray[0] = (uint8)(*(EepromPointer + 3));	
  98              		.loc 1 222 0
  99 000c C378     		ldrb	r3, [r0, #3]	@ zero_extendqisi2
 100 000e 8DF80430 		strb	r3, [sp, #4]
 223:..\AMC_Lib\src/eeprom_amc.c **** 	eepromArray[1] = (uint8)(*(EepromPointer + 2));
 101              		.loc 1 223 0
 102 0012 8378     		ldrb	r3, [r0, #2]	@ zero_extendqisi2
 103 0014 8DF80530 		strb	r3, [sp, #5]
 224:..\AMC_Lib\src/eeprom_amc.c **** 	eepromArray[2] = (uint8)(*(EepromPointer + 1));
 104              		.loc 1 224 0
 105 0018 4378     		ldrb	r3, [r0, #1]	@ zero_extendqisi2
 106 001a 8DF80630 		strb	r3, [sp, #6]
 225:..\AMC_Lib\src/eeprom_amc.c **** 	eepromArray[3] = (uint8)(*(EepromPointer + 0));
 107              		.loc 1 225 0
 108 001e 0378     		ldrb	r3, [r0]	@ zero_extendqisi2
 109 0020 8DF80730 		strb	r3, [sp, #7]
 226:..\AMC_Lib\src/eeprom_amc.c **** 	
 227:..\AMC_Lib\src/eeprom_amc.c **** 	return *((float*)(eepromArray));
 228:..\AMC_Lib\src/eeprom_amc.c **** }
 110              		.loc 1 228 0
 111 0024 0198     		ldr	r0, [sp, #4]	@ float
 112              	.LVL6:
 113 0026 02B0     		add	sp, sp, #8
 114              		.cfi_def_cfa_offset 0
ARM GAS  C:\Users\BRIAN~1.SEA\AppData\Local\Temp\ccmReHVc.s 			page 7


 115              		@ sp needed
 116 0028 7047     		bx	lr
 117              		.cfi_endproc
 118              	.LFE71:
 119              		.size	eepromReadRow, .-eepromReadRow
 120 002a 00BF     		.section	.text.eepromReadRowUINT32,"ax",%progbits
 121              		.align	2
 122              		.thumb
 123              		.thumb_func
 124              		.type	eepromReadRowUINT32, %function
 125              	eepromReadRowUINT32:
 126              	.LFB72:
 229:..\AMC_Lib\src/eeprom_amc.c **** /*-----------------------------------------------------------------------------
 230:..\AMC_Lib\src/eeprom_amc.c **** 
 231:..\AMC_Lib\src/eeprom_amc.c **** 	Function:	eepromReadRowUINT32
 232:..\AMC_Lib\src/eeprom_amc.c **** 
 233:..\AMC_Lib\src/eeprom_amc.c **** 	Synopsis:	This function returns a uint32 number from EEPROM registers
 234:..\AMC_Lib\src/eeprom_amc.c **** 
 235:..\AMC_Lib\src/eeprom_amc.c **** 	Parameters:	eeprom row of data to return
 236:..\AMC_Lib\src/eeprom_amc.c **** 
 237:..\AMC_Lib\src/eeprom_amc.c **** 	Returns:	uint32 number value
 238:..\AMC_Lib\src/eeprom_amc.c **** 
 239:..\AMC_Lib\src/eeprom_amc.c **** 	Warnings:	
 240:..\AMC_Lib\src/eeprom_amc.c **** 
 241:..\AMC_Lib\src/eeprom_amc.c **** -----------------------------------------------------------------------------*/
 242:..\AMC_Lib\src/eeprom_amc.c **** static uint32 eepromReadRowUINT32( uint8 eepromRow )
 243:..\AMC_Lib\src/eeprom_amc.c **** {	
 127              		.loc 1 243 0
 128              		.cfi_startproc
 129              		@ args = 0, pretend = 0, frame = 8
 130              		@ frame_needed = 0, uses_anonymous_args = 0
 131              		@ link register save eliminated.
 132              	.LVL7:
 133 0000 82B0     		sub	sp, sp, #8
 134              		.cfi_def_cfa_offset 8
 135              	.LVL8:
 244:..\AMC_Lib\src/eeprom_amc.c **** 
 245:..\AMC_Lib\src/eeprom_amc.c ****     reg8 * EepromPointer;
 246:..\AMC_Lib\src/eeprom_amc.c **** 	uint8 eepromArray[4];
 247:..\AMC_Lib\src/eeprom_amc.c **** 		
 248:..\AMC_Lib\src/eeprom_amc.c **** 	/* setup the pointer for getting the right value in EEPROM */
 249:..\AMC_Lib\src/eeprom_amc.c ****     EepromPointer = (reg8 *) CYDEV_EE_BASE;
 250:..\AMC_Lib\src/eeprom_amc.c **** 	EepromPointer = EepromPointer + (CYDEV_EEPROM_ROW_SIZE * eepromRow);
 136              		.loc 1 250 0
 137 0002 0001     		lsls	r0, r0, #4
 138              	.LVL9:
 139 0004 00F18040 		add	r0, r0, #1073741824
 140 0008 00F50040 		add	r0, r0, #32768
 141              	.LVL10:
 251:..\AMC_Lib\src/eeprom_amc.c **** 		
 252:..\AMC_Lib\src/eeprom_amc.c **** 	/* reorder the return for the correct float conversion */
 253:..\AMC_Lib\src/eeprom_amc.c **** 	eepromArray[0] = (uint8)(*(EepromPointer + 3));	
 142              		.loc 1 253 0
 143 000c C378     		ldrb	r3, [r0, #3]	@ zero_extendqisi2
 144 000e 8DF80430 		strb	r3, [sp, #4]
 254:..\AMC_Lib\src/eeprom_amc.c **** 	eepromArray[1] = (uint8)(*(EepromPointer + 2));
 145              		.loc 1 254 0
ARM GAS  C:\Users\BRIAN~1.SEA\AppData\Local\Temp\ccmReHVc.s 			page 8


 146 0012 8378     		ldrb	r3, [r0, #2]	@ zero_extendqisi2
 147 0014 8DF80530 		strb	r3, [sp, #5]
 255:..\AMC_Lib\src/eeprom_amc.c **** 	eepromArray[2] = (uint8)(*(EepromPointer + 1));
 148              		.loc 1 255 0
 149 0018 4378     		ldrb	r3, [r0, #1]	@ zero_extendqisi2
 150 001a 8DF80630 		strb	r3, [sp, #6]
 256:..\AMC_Lib\src/eeprom_amc.c **** 	eepromArray[3] = (uint8)(*(EepromPointer + 0));
 151              		.loc 1 256 0
 152 001e 0378     		ldrb	r3, [r0]	@ zero_extendqisi2
 153 0020 8DF80730 		strb	r3, [sp, #7]
 257:..\AMC_Lib\src/eeprom_amc.c **** 	
 258:..\AMC_Lib\src/eeprom_amc.c **** 	return *((uint32*)(eepromArray));
 259:..\AMC_Lib\src/eeprom_amc.c **** }
 154              		.loc 1 259 0
 155 0024 0198     		ldr	r0, [sp, #4]
 156              	.LVL11:
 157 0026 02B0     		add	sp, sp, #8
 158              		.cfi_def_cfa_offset 0
 159              		@ sp needed
 160 0028 7047     		bx	lr
 161              		.cfi_endproc
 162              	.LFE72:
 163              		.size	eepromReadRowUINT32, .-eepromReadRowUINT32
 164 002a 00BF     		.section	.text.eepromWriteRowUint32,"ax",%progbits
 165              		.align	2
 166              		.thumb
 167              		.thumb_func
 168              		.type	eepromWriteRowUint32, %function
 169              	eepromWriteRowUint32:
 170              	.LFB74:
 260:..\AMC_Lib\src/eeprom_amc.c **** /*-----------------------------------------------------------------------------
 261:..\AMC_Lib\src/eeprom_amc.c **** 
 262:..\AMC_Lib\src/eeprom_amc.c **** 	Function:	eepromWriteRow
 263:..\AMC_Lib\src/eeprom_amc.c **** 
 264:..\AMC_Lib\src/eeprom_amc.c **** 	Synopsis:	This function writes a floating point number to an EEPROM row
 265:..\AMC_Lib\src/eeprom_amc.c **** 
 266:..\AMC_Lib\src/eeprom_amc.c **** 	Parameters:	floating point number and a row in EEPROM to write to
 267:..\AMC_Lib\src/eeprom_amc.c **** 
 268:..\AMC_Lib\src/eeprom_amc.c **** 	Returns:	floating point
 269:..\AMC_Lib\src/eeprom_amc.c **** 
 270:..\AMC_Lib\src/eeprom_amc.c **** 	Warnings:	
 271:..\AMC_Lib\src/eeprom_amc.c **** 
 272:..\AMC_Lib\src/eeprom_amc.c **** -----------------------------------------------------------------------------*/
 273:..\AMC_Lib\src/eeprom_amc.c **** static void eepromWriteRow( float floatNumber, uint8 eepromRow )
 274:..\AMC_Lib\src/eeprom_amc.c **** {	
 275:..\AMC_Lib\src/eeprom_amc.c **** 	uint8 eepromArray[4];
 276:..\AMC_Lib\src/eeprom_amc.c **** 
 277:..\AMC_Lib\src/eeprom_amc.c **** 	/* convert the float to a correctly formatted byte array */
 278:..\AMC_Lib\src/eeprom_amc.c **** 	eepromFloatToByteArray( floatNumber, eepromArray );
 279:..\AMC_Lib\src/eeprom_amc.c **** 
 280:..\AMC_Lib\src/eeprom_amc.c ****     /* Get the die temp. */
 281:..\AMC_Lib\src/eeprom_amc.c ****     if(CySetTemp() == CYRET_SUCCESS)
 282:..\AMC_Lib\src/eeprom_amc.c ****     {
 283:..\AMC_Lib\src/eeprom_amc.c ****         /* Write to EEPROM row */
 284:..\AMC_Lib\src/eeprom_amc.c ****         EEPROM_1_Write(eepromArray, eepromRow);
 285:..\AMC_Lib\src/eeprom_amc.c ****     }	
 286:..\AMC_Lib\src/eeprom_amc.c **** }
ARM GAS  C:\Users\BRIAN~1.SEA\AppData\Local\Temp\ccmReHVc.s 			page 9


 287:..\AMC_Lib\src/eeprom_amc.c **** 
 288:..\AMC_Lib\src/eeprom_amc.c **** 
 289:..\AMC_Lib\src/eeprom_amc.c **** /*-----------------------------------------------------------------------------
 290:..\AMC_Lib\src/eeprom_amc.c **** 
 291:..\AMC_Lib\src/eeprom_amc.c **** 	Function:	eepromWriteRowUint32
 292:..\AMC_Lib\src/eeprom_amc.c **** 
 293:..\AMC_Lib\src/eeprom_amc.c **** 	Synopsis:	This function writes a floating point number to an EEPROM row
 294:..\AMC_Lib\src/eeprom_amc.c **** 
 295:..\AMC_Lib\src/eeprom_amc.c **** 	Parameters:	floating point number and a row in EEPROM to write to
 296:..\AMC_Lib\src/eeprom_amc.c **** 
 297:..\AMC_Lib\src/eeprom_amc.c **** 	Returns:	floating point
 298:..\AMC_Lib\src/eeprom_amc.c **** 
 299:..\AMC_Lib\src/eeprom_amc.c **** 	Warnings:	
 300:..\AMC_Lib\src/eeprom_amc.c **** 
 301:..\AMC_Lib\src/eeprom_amc.c **** -----------------------------------------------------------------------------*/
 302:..\AMC_Lib\src/eeprom_amc.c **** static void eepromWriteRowUint32( uint32 UINT32Number, uint8 eepromRow )
 303:..\AMC_Lib\src/eeprom_amc.c **** {	
 171              		.loc 1 303 0
 172              		.cfi_startproc
 173              		@ args = 0, pretend = 0, frame = 8
 174              		@ frame_needed = 0, uses_anonymous_args = 0
 175              	.LVL12:
 176 0000 10B5     		push	{r4, lr}
 177              		.cfi_def_cfa_offset 8
 178              		.cfi_offset 4, -8
 179              		.cfi_offset 14, -4
 180 0002 82B0     		sub	sp, sp, #8
 181              		.cfi_def_cfa_offset 16
 182 0004 0C46     		mov	r4, r1
 304:..\AMC_Lib\src/eeprom_amc.c **** 	uint8 eepromArray[4];
 305:..\AMC_Lib\src/eeprom_amc.c **** 
 306:..\AMC_Lib\src/eeprom_amc.c **** 	/* convert the uint32 to a correctly formatted byte array */
 307:..\AMC_Lib\src/eeprom_amc.c **** 	eepromUINT32ToByteArray( UINT32Number, eepromArray );
 183              		.loc 1 307 0
 184 0006 01A9     		add	r1, sp, #4
 185              	.LVL13:
 186 0008 FFF7FEFF 		bl	eepromUINT32ToByteArray
 187              	.LVL14:
 308:..\AMC_Lib\src/eeprom_amc.c **** 
 309:..\AMC_Lib\src/eeprom_amc.c ****     /* Get the die temp. */
 310:..\AMC_Lib\src/eeprom_amc.c ****     if(CySetTemp() == CYRET_SUCCESS)
 188              		.loc 1 310 0
 189 000c FFF7FEFF 		bl	CySetTemp
 190              	.LVL15:
 191 0010 18B9     		cbnz	r0, .L7
 192              	.LBB2:
 311:..\AMC_Lib\src/eeprom_amc.c ****     {
 312:..\AMC_Lib\src/eeprom_amc.c ****         /* Write to EEPROM row */
 313:..\AMC_Lib\src/eeprom_amc.c ****         EEPROM_1_Write(eepromArray, eepromRow);
 193              		.loc 1 313 0
 194 0012 2146     		mov	r1, r4
 195 0014 01A8     		add	r0, sp, #4
 196 0016 FFF7FEFF 		bl	EEPROM_1_Write
 197              	.LVL16:
 198              	.L7:
 199              	.LBE2:
 314:..\AMC_Lib\src/eeprom_amc.c ****     }	
ARM GAS  C:\Users\BRIAN~1.SEA\AppData\Local\Temp\ccmReHVc.s 			page 10


 315:..\AMC_Lib\src/eeprom_amc.c **** }
 200              		.loc 1 315 0
 201 001a 02B0     		add	sp, sp, #8
 202              		.cfi_def_cfa_offset 8
 203              		@ sp needed
 204 001c 10BD     		pop	{r4, pc}
 205              		.cfi_endproc
 206              	.LFE74:
 207              		.size	eepromWriteRowUint32, .-eepromWriteRowUint32
 208 001e 00BF     		.section	.text.eepromWriteRow,"ax",%progbits
 209              		.align	2
 210              		.thumb
 211              		.thumb_func
 212              		.type	eepromWriteRow, %function
 213              	eepromWriteRow:
 214              	.LFB73:
 274:..\AMC_Lib\src/eeprom_amc.c **** 	uint8 eepromArray[4];
 215              		.loc 1 274 0
 216              		.cfi_startproc
 217              		@ args = 0, pretend = 0, frame = 8
 218              		@ frame_needed = 0, uses_anonymous_args = 0
 219              	.LVL17:
 220 0000 10B5     		push	{r4, lr}
 221              		.cfi_def_cfa_offset 8
 222              		.cfi_offset 4, -8
 223              		.cfi_offset 14, -4
 224 0002 82B0     		sub	sp, sp, #8
 225              		.cfi_def_cfa_offset 16
 226 0004 0C46     		mov	r4, r1
 278:..\AMC_Lib\src/eeprom_amc.c **** 
 227              		.loc 1 278 0
 228 0006 01A9     		add	r1, sp, #4
 229              	.LVL18:
 230 0008 FFF7FEFF 		bl	eepromFloatToByteArray
 231              	.LVL19:
 281:..\AMC_Lib\src/eeprom_amc.c ****     {
 232              		.loc 1 281 0
 233 000c FFF7FEFF 		bl	CySetTemp
 234              	.LVL20:
 235 0010 18B9     		cbnz	r0, .L10
 236              	.LBB3:
 284:..\AMC_Lib\src/eeprom_amc.c ****     }	
 237              		.loc 1 284 0
 238 0012 2146     		mov	r1, r4
 239 0014 01A8     		add	r0, sp, #4
 240 0016 FFF7FEFF 		bl	EEPROM_1_Write
 241              	.LVL21:
 242              	.L10:
 243              	.LBE3:
 286:..\AMC_Lib\src/eeprom_amc.c **** 
 244              		.loc 1 286 0
 245 001a 02B0     		add	sp, sp, #8
 246              		.cfi_def_cfa_offset 8
 247              		@ sp needed
 248 001c 10BD     		pop	{r4, pc}
 249              		.cfi_endproc
 250              	.LFE73:
ARM GAS  C:\Users\BRIAN~1.SEA\AppData\Local\Temp\ccmReHVc.s 			page 11


 251              		.size	eepromWriteRow, .-eepromWriteRow
 252 001e 00BF     		.section	.text.eeprom_Init,"ax",%progbits
 253              		.align	2
 254              		.global	eeprom_Init
 255              		.thumb
 256              		.thumb_func
 257              		.type	eeprom_Init, %function
 258              	eeprom_Init:
 259              	.LFB64:
  62:..\AMC_Lib\src/eeprom_amc.c **** 	EEPROM_1_Start();
 260              		.loc 1 62 0
 261              		.cfi_startproc
 262              		@ args = 0, pretend = 0, frame = 0
 263              		@ frame_needed = 0, uses_anonymous_args = 0
 264 0000 08B5     		push	{r3, lr}
 265              		.cfi_def_cfa_offset 8
 266              		.cfi_offset 3, -8
 267              		.cfi_offset 14, -4
  63:..\AMC_Lib\src/eeprom_amc.c **** }
 268              		.loc 1 63 0
 269 0002 FFF7FEFF 		bl	EEPROM_1_Start
 270              	.LVL22:
 271 0006 08BD     		pop	{r3, pc}
 272              		.cfi_endproc
 273              	.LFE64:
 274              		.size	eeprom_Init, .-eeprom_Init
 275              		.section	.text.eepromGetUint32,"ax",%progbits
 276              		.align	2
 277              		.global	eepromGetUint32
 278              		.thumb
 279              		.thumb_func
 280              		.type	eepromGetUint32, %function
 281              	eepromGetUint32:
 282              	.LFB65:
  82:..\AMC_Lib\src/eeprom_amc.c **** 	return eepromReadRowUINT32( eepromRow );
 283              		.loc 1 82 0
 284              		.cfi_startproc
 285              		@ args = 0, pretend = 0, frame = 0
 286              		@ frame_needed = 0, uses_anonymous_args = 0
 287              	.LVL23:
 288 0000 08B5     		push	{r3, lr}
 289              		.cfi_def_cfa_offset 8
 290              		.cfi_offset 3, -8
 291              		.cfi_offset 14, -4
  83:..\AMC_Lib\src/eeprom_amc.c **** }
 292              		.loc 1 83 0
 293 0002 FFF7FEFF 		bl	eepromReadRowUINT32
 294              	.LVL24:
  84:..\AMC_Lib\src/eeprom_amc.c **** 
 295              		.loc 1 84 0
 296 0006 08BD     		pop	{r3, pc}
 297              		.cfi_endproc
 298              	.LFE65:
 299              		.size	eepromGetUint32, .-eepromGetUint32
 300              		.section	.text.eepromSetUint32,"ax",%progbits
 301              		.align	2
 302              		.global	eepromSetUint32
ARM GAS  C:\Users\BRIAN~1.SEA\AppData\Local\Temp\ccmReHVc.s 			page 12


 303              		.thumb
 304              		.thumb_func
 305              		.type	eepromSetUint32, %function
 306              	eepromSetUint32:
 307              	.LFB66:
 101:..\AMC_Lib\src/eeprom_amc.c **** 	eepromWriteRowUint32( UINT32Number, eepromRow );
 308              		.loc 1 101 0
 309              		.cfi_startproc
 310              		@ args = 0, pretend = 0, frame = 0
 311              		@ frame_needed = 0, uses_anonymous_args = 0
 312              	.LVL25:
 313 0000 08B5     		push	{r3, lr}
 314              		.cfi_def_cfa_offset 8
 315              		.cfi_offset 3, -8
 316              		.cfi_offset 14, -4
 102:..\AMC_Lib\src/eeprom_amc.c **** }
 317              		.loc 1 102 0
 318 0002 FFF7FEFF 		bl	eepromWriteRowUint32
 319              	.LVL26:
 320 0006 08BD     		pop	{r3, pc}
 321              		.cfi_endproc
 322              	.LFE66:
 323              		.size	eepromSetUint32, .-eepromSetUint32
 324              		.section	.text.eepromGetFloat,"ax",%progbits
 325              		.align	2
 326              		.global	eepromGetFloat
 327              		.thumb
 328              		.thumb_func
 329              		.type	eepromGetFloat, %function
 330              	eepromGetFloat:
 331              	.LFB67:
 118:..\AMC_Lib\src/eeprom_amc.c **** 	return eepromReadRow( eepromRow );
 332              		.loc 1 118 0
 333              		.cfi_startproc
 334              		@ args = 0, pretend = 0, frame = 0
 335              		@ frame_needed = 0, uses_anonymous_args = 0
 336              	.LVL27:
 337 0000 08B5     		push	{r3, lr}
 338              		.cfi_def_cfa_offset 8
 339              		.cfi_offset 3, -8
 340              		.cfi_offset 14, -4
 119:..\AMC_Lib\src/eeprom_amc.c **** }
 341              		.loc 1 119 0
 342 0002 FFF7FEFF 		bl	eepromReadRow
 343              	.LVL28:
 120:..\AMC_Lib\src/eeprom_amc.c **** 
 344              		.loc 1 120 0
 345 0006 08BD     		pop	{r3, pc}
 346              		.cfi_endproc
 347              	.LFE67:
 348              		.size	eepromGetFloat, .-eepromGetFloat
 349              		.section	.text.eepromSetFloat,"ax",%progbits
 350              		.align	2
 351              		.global	eepromSetFloat
 352              		.thumb
 353              		.thumb_func
 354              		.type	eepromSetFloat, %function
ARM GAS  C:\Users\BRIAN~1.SEA\AppData\Local\Temp\ccmReHVc.s 			page 13


 355              	eepromSetFloat:
 356              	.LFB68:
 137:..\AMC_Lib\src/eeprom_amc.c **** 	eepromWriteRow( floatNumber, eepromRow );
 357              		.loc 1 137 0
 358              		.cfi_startproc
 359              		@ args = 0, pretend = 0, frame = 0
 360              		@ frame_needed = 0, uses_anonymous_args = 0
 361              	.LVL29:
 362 0000 08B5     		push	{r3, lr}
 363              		.cfi_def_cfa_offset 8
 364              		.cfi_offset 3, -8
 365              		.cfi_offset 14, -4
 138:..\AMC_Lib\src/eeprom_amc.c **** }
 366              		.loc 1 138 0
 367 0002 FFF7FEFF 		bl	eepromWriteRow
 368              	.LVL30:
 369 0006 08BD     		pop	{r3, pc}
 370              		.cfi_endproc
 371              	.LFE68:
 372              		.size	eepromSetFloat, .-eepromSetFloat
 373              		.text
 374              	.Letext0:
 375              		.file 2 "c:\\program files (x86)\\cypress\\psoc creator\\4.1\\psoc creator\\import\\gnu\\arm\\5.4.
 376              		.file 3 "c:\\program files (x86)\\cypress\\psoc creator\\4.1\\psoc creator\\import\\gnu\\arm\\5.4.
 377              		.file 4 "Generated_Source\\PSoC5/cytypes.h"
 378              		.file 5 "Generated_Source\\PSoC5/CyFlash.h"
 379              		.file 6 "Generated_Source\\PSoC5/core_cm3.h"