ARM GAS  C:\Users\BRIAN~1.SEA\AppData\Local\Temp\cc01n2CY.s 			page 1


   1              		.syntax unified
   2              		.cpu cortex-m3
   3              		.fpu softvfp
   4              		.eabi_attribute 20, 1
   5              		.eabi_attribute 21, 1
   6              		.eabi_attribute 23, 3
   7              		.eabi_attribute 24, 1
   8              		.eabi_attribute 25, 1
   9              		.eabi_attribute 26, 1
  10              		.eabi_attribute 30, 1
  11              		.eabi_attribute 34, 1
  12              		.eabi_attribute 18, 4
  13              		.thumb
  14              		.syntax unified
  15              		.file	"main.c"
  16              		.text
  17              	.Ltext0:
  18              		.cfi_sections	.debug_frame
  19              		.section	.text.set_usbByteArray,"ax",%progbits
  20              		.align	2
  21              		.global	set_usbByteArray
  22              		.thumb
  23              		.thumb_func
  24              		.type	set_usbByteArray, %function
  25              	set_usbByteArray:
  26              	.LFB65:
  27              		.file 1 "main.c"
   1:main.c        **** /* ========================================
   2:main.c        ****  *
   3:main.c        ****  * Copyright YOUR COMPANY, THE YEAR
   4:main.c        ****  * All Rights Reserved
   5:main.c        ****  * UNPUBLISHED, LICENSED SOFTWARE.
   6:main.c        ****  *
   7:main.c        ****  * CONFIDENTIAL AND PROPRIETARY INFORMATION
   8:main.c        ****  * WHICH IS THE PROPERTY OF your company.
   9:main.c        ****  *
  10:main.c        ****  * ========================================
  11:main.c        **** */
  12:main.c        **** #include <math.h>
  13:main.c        **** #include <stdio.h>
  14:main.c        **** #include <stdlib.h>
  15:main.c        **** #include "AMC.h"
  16:main.c        **** #include "usb.h"
  17:main.c        **** #include "eeprom_amc.h"
  18:main.c        **** #include <string.h>
  19:main.c        **** 
  20:main.c        **** void set_usbByteArray( float usbValue, uint8 usbStartByte );
  21:main.c        **** void Enable_Set( CYBIT OnOff );
  22:main.c        **** void Direction_Set( CYBIT OnOff );
  23:main.c        **** 
  24:main.c        **** //usb
  25:main.c        **** static uint8 IN_Data_Buffer[MAX_USB_BYTES];
  26:main.c        **** static uint8 OUT_Data_Buffer[MAX_USB_BYTES];
  27:main.c        **** 
  28:main.c        **** /* USB */
  29:main.c        **** enum usbCommands {	
  30:main.c        ****     usbSetEnable = 0u,
ARM GAS  C:\Users\BRIAN~1.SEA\AppData\Local\Temp\cc01n2CY.s 			page 2


  31:main.c        ****     usbSetDirection,
  32:main.c        ****     usbSetCounts,
  33:main.c        ****     usbSetClock,
  34:main.c        ****     usbStartMotion,
  35:main.c        **** };
  36:main.c        **** 
  37:main.c        **** uint32 pulses = 0;
  38:main.c        **** CYBIT direction = TRUE;
  39:main.c        **** CYBIT enable = TRUE;
  40:main.c        **** 
  41:main.c        **** int main()
  42:main.c        **** {
  43:main.c        ****     CyGlobalIntEnable; /* Enable global interrupts. */
  44:main.c        ****     
  45:main.c        ****     usb_Init( usbHidOutEpHandler, IN_Data_Buffer, OUT_Data_Buffer);
  46:main.c        ****     
  47:main.c        ****     Timer1_Start( );
  48:main.c        ****     
  49:main.c        ****     Enable_Set( TRUE );
  50:main.c        ****     
  51:main.c        ****     for(;;)
  52:main.c        ****     {        
  53:main.c        ****         usb_Tick();
  54:main.c        ****     }
  55:main.c        **** }
  56:main.c        **** void set_usbByteArray( float usbValue, uint8 usbStartByte )
  57:main.c        **** {	
  28              		.loc 1 57 0
  29              		.cfi_startproc
  30              		@ args = 0, pretend = 0, frame = 0
  31              		@ frame_needed = 0, uses_anonymous_args = 0
  32              		@ link register save eliminated.
  33              	.LVL0:
  34 0000 10B4     		push	{r4}
  35              		.cfi_def_cfa_offset 4
  36              		.cfi_offset 4, -4
  37              	.LVL1:
  58:main.c        **** 	uint32 usbValue_UINT32 = *(uint32 *)&usbValue;	
  59:main.c        **** 		
  60:main.c        **** 	/* Load Byte 1 of usbCmdResponse into the Input Buffer */
  61:main.c        **** 	IN_Data_Buffer[usbStartByte + 3] = (int8) 0x000000FF & usbValue_UINT32;
  38              		.loc 1 61 0
  39 0002 CA1C     		adds	r2, r1, #3
  40 0004 054B     		ldr	r3, .L3
  41 0006 9854     		strb	r0, [r3, r2]
  62:main.c        **** 	
  63:main.c        **** 	/* Load Byte 2 of usbCmdResponse into the Input Buffer */
  64:main.c        **** 	IN_Data_Buffer[usbStartByte + 2] = (int8) 0x000000FF & (usbValue_UINT32 >>  8);
  42              		.loc 1 64 0
  43 0008 8A1C     		adds	r2, r1, #2
  44 000a 040A     		lsrs	r4, r0, #8
  45 000c 9C54     		strb	r4, [r3, r2]
  65:main.c        **** 	
  66:main.c        **** 	/* Load Byte 3 of usbCmdResponse into the Input Buffer */
  67:main.c        **** 	IN_Data_Buffer[usbStartByte + 1] = (int8) 0x000000FF & (usbValue_UINT32 >>  16);
  46              		.loc 1 67 0
  47 000e 4A1C     		adds	r2, r1, #1
ARM GAS  C:\Users\BRIAN~1.SEA\AppData\Local\Temp\cc01n2CY.s 			page 3


  48 0010 040C     		lsrs	r4, r0, #16
  49 0012 9C54     		strb	r4, [r3, r2]
  68:main.c        **** 	
  69:main.c        **** 	/* Load Byte 4 of usbCmdResponse into the Input Buffer */
  70:main.c        **** 	IN_Data_Buffer[usbStartByte] = (int8) 0x000000FF & (usbValue_UINT32 >> 24);
  50              		.loc 1 70 0
  51 0014 000E     		lsrs	r0, r0, #24
  52              	.LVL2:
  53 0016 5854     		strb	r0, [r3, r1]
  71:main.c        **** }
  54              		.loc 1 71 0
  55 0018 10BC     		pop	{r4}
  56              		.cfi_restore 4
  57              		.cfi_def_cfa_offset 0
  58 001a 7047     		bx	lr
  59              	.L4:
  60              		.align	2
  61              	.L3:
  62 001c 00000000 		.word	.LANCHOR0
  63              		.cfi_endproc
  64              	.LFE65:
  65              		.size	set_usbByteArray, .-set_usbByteArray
  66              		.section	.text.USBFS_EP_2_ISR_ExitCallback,"ax",%progbits
  67              		.align	2
  68              		.global	USBFS_EP_2_ISR_ExitCallback
  69              		.thumb
  70              		.thumb_func
  71              		.type	USBFS_EP_2_ISR_ExitCallback, %function
  72              	USBFS_EP_2_ISR_ExitCallback:
  73              	.LFB67:
  72:main.c        **** void usbHidOutEpHandler( void )
  73:main.c        **** {
  74:main.c        **** 	float floatVal1 = 0.0f;
  75:main.c        **** 	float floatValOut = 0.0f;
  76:main.c        **** 	
  77:main.c        **** 	switch(OUT_Data_Buffer[0])
  78:main.c        **** 	{        
  79:main.c        **** 		case usbSetEnable:
  80:main.c        ****         {            
  81:main.c        ****             floatVal1 = *((float*)(&OUT_Data_Buffer[1]));
  82:main.c        ****             enable = (CYBIT)floatVal1;      
  83:main.c        ****             if(!enable)
  84:main.c        ****             {
  85:main.c        ****                 Enable_Set( TRUE );
  86:main.c        ****             }
  87:main.c        ****             else
  88:main.c        ****             {
  89:main.c        ****                 Enable_Set( FALSE );
  90:main.c        ****             }     
  91:main.c        ****             
  92:main.c        **** 			break;
  93:main.c        ****         }
  94:main.c        **** 		case usbSetDirection:
  95:main.c        ****         {            
  96:main.c        ****             floatVal1 = *((float*)(&OUT_Data_Buffer[1]));
  97:main.c        ****             direction = (CYBIT)floatVal1;      
  98:main.c        ****             if(!direction)
ARM GAS  C:\Users\BRIAN~1.SEA\AppData\Local\Temp\cc01n2CY.s 			page 4


  99:main.c        ****             {
 100:main.c        ****                 Direction_Set( FALSE );
 101:main.c        ****             }
 102:main.c        ****             else
 103:main.c        ****             {
 104:main.c        ****                 Direction_Set( TRUE );
 105:main.c        ****             }     
 106:main.c        ****             
 107:main.c        **** 			break;
 108:main.c        ****         }
 109:main.c        **** 		case usbSetCounts:
 110:main.c        ****         {
 111:main.c        **** 			floatVal1 = *((float*)(&OUT_Data_Buffer[1]));
 112:main.c        ****             if(floatVal1 > 2.0f)
 113:main.c        ****             {
 114:main.c        ****                 pulses = (uint32)floatVal1 - 2;
 115:main.c        ****             }
 116:main.c        ****             else
 117:main.c        ****             {
 118:main.c        ****                 pulses = 5u;
 119:main.c        ****             }
 120:main.c        ****     		Timer1_WritePeriod(pulses);
 121:main.c        **** 			break;
 122:main.c        ****         }
 123:main.c        **** 		case usbSetClock:
 124:main.c        ****         {            
 125:main.c        ****             uint16 divider = 0u;
 126:main.c        ****             floatVal1 = *((float*)(&OUT_Data_Buffer[1]));
 127:main.c        ****             divider = 100000.0f / floatVal1;
 128:main.c        ****             Clock_1_SetDivider((uint16)((100000.0f/(floatVal1))));
 129:main.c        ****             
 130:main.c        **** 			break;
 131:main.c        ****         }
 132:main.c        **** 		case usbStartMotion:
 133:main.c        ****         {            
 134:main.c        ****              TrigPulseTrain_Write( 1 );
 135:main.c        ****     		
 136:main.c        **** 			break;
 137:main.c        ****         }
 138:main.c        **** 
 139:main.c        **** 		default:
 140:main.c        **** 			break;
 141:main.c        **** 	}
 142:main.c        **** 		
 143:main.c        **** 	
 144:main.c        **** 	// Send data back to PC over USB
 145:main.c        **** 	memset(&IN_Data_Buffer[0], (uint8)0, MAX_USB_BYTES);
 146:main.c        **** 	set_usbByteArray( floatValOut, 0u );
 147:main.c        **** 	usb_Load_EP1_Bulk_EP();
 148:main.c        **** 
 149:main.c        **** }
 150:main.c        **** void USBFS_EP_2_ISR_ExitCallback( void )
 151:main.c        **** {
  74              		.loc 1 151 0
  75              		.cfi_startproc
  76              		@ args = 0, pretend = 0, frame = 0
  77              		@ frame_needed = 0, uses_anonymous_args = 0
ARM GAS  C:\Users\BRIAN~1.SEA\AppData\Local\Temp\cc01n2CY.s 			page 5


  78 0000 08B5     		push	{r3, lr}
  79              		.cfi_def_cfa_offset 8
  80              		.cfi_offset 3, -8
  81              		.cfi_offset 14, -4
 152:main.c        ****     usb_Load_EP2();   
  82              		.loc 1 152 0
  83 0002 FFF7FEFF 		bl	usb_Load_EP2
  84              	.LVL3:
  85 0006 08BD     		pop	{r3, pc}
  86              		.cfi_endproc
  87              	.LFE67:
  88              		.size	USBFS_EP_2_ISR_ExitCallback, .-USBFS_EP_2_ISR_ExitCallback
  89              		.section	.text.Enable_Set,"ax",%progbits
  90              		.align	2
  91              		.global	Enable_Set
  92              		.thumb
  93              		.thumb_func
  94              		.type	Enable_Set, %function
  95              	Enable_Set:
  96              	.LFB68:
 153:main.c        **** }
 154:main.c        **** 
 155:main.c        **** void Enable_Set( CYBIT OnOff )
 156:main.c        **** {
  97              		.loc 1 156 0
  98              		.cfi_startproc
  99              		@ args = 0, pretend = 0, frame = 0
 100              		@ frame_needed = 0, uses_anonymous_args = 0
 101              	.LVL4:
 102 0000 10B5     		push	{r4, lr}
 103              		.cfi_def_cfa_offset 8
 104              		.cfi_offset 4, -8
 105              		.cfi_offset 14, -4
 106 0002 0446     		mov	r4, r0
 157:main.c        ****     uint8   CurrentVal;
 158:main.c        ****     CurrentVal = EnableAndDirection_Read();                                 // Read current LED set
 107              		.loc 1 158 0
 108 0004 FFF7FEFF 		bl	EnableAndDirection_Read
 109              	.LVL5:
 159:main.c        ****     if(OnOff)
 110              		.loc 1 159 0
 111 0008 1CB1     		cbz	r4, .L8
 160:main.c        ****     {
 161:main.c        ****         CurrentVal |= 0b00000001;
 112              		.loc 1 161 0
 113 000a 40F00100 		orr	r0, r0, #1
 114              	.LVL6:
 115 000e C0B2     		uxtb	r0, r0
 116              	.LVL7:
 117 0010 01E0     		b	.L9
 118              	.L8:
 162:main.c        ****     }
 163:main.c        ****     else
 164:main.c        ****     {
 165:main.c        ****         CurrentVal &= ~0b00000001;
 119              		.loc 1 165 0
 120 0012 00F0FE00 		and	r0, r0, #254
ARM GAS  C:\Users\BRIAN~1.SEA\AppData\Local\Temp\cc01n2CY.s 			page 6


 121              	.LVL8:
 122              	.L9:
 166:main.c        ****     }
 167:main.c        ****     EnableAndDirection_Write( CurrentVal );
 123              		.loc 1 167 0
 124 0016 FFF7FEFF 		bl	EnableAndDirection_Write
 125              	.LVL9:
 126 001a 10BD     		pop	{r4, pc}
 127              		.cfi_endproc
 128              	.LFE68:
 129              		.size	Enable_Set, .-Enable_Set
 130              		.section	.text.main,"ax",%progbits
 131              		.align	2
 132              		.global	main
 133              		.thumb
 134              		.thumb_func
 135              		.type	main, %function
 136              	main:
 137              	.LFB64:
  42:main.c        ****     CyGlobalIntEnable; /* Enable global interrupts. */
 138              		.loc 1 42 0
 139              		.cfi_startproc
 140              		@ Volatile: function does not return.
 141              		@ args = 0, pretend = 0, frame = 0
 142              		@ frame_needed = 0, uses_anonymous_args = 0
 143 0000 08B5     		push	{r3, lr}
 144              		.cfi_def_cfa_offset 8
 145              		.cfi_offset 3, -8
 146              		.cfi_offset 14, -4
  43:main.c        ****     
 147              		.loc 1 43 0
 148              		.syntax unified
 149              	@ 43 "main.c" 1
 150 0002 62B6     		CPSIE   i
 151              	@ 0 "" 2
  45:main.c        ****     
 152              		.loc 1 45 0
 153              		.thumb
 154              		.syntax unified
 155 0004 0649     		ldr	r1, .L14
 156 0006 01F14002 		add	r2, r1, #64
 157 000a 0648     		ldr	r0, .L14+4
 158 000c FFF7FEFF 		bl	usb_Init
 159              	.LVL10:
  47:main.c        ****     
 160              		.loc 1 47 0
 161 0010 FFF7FEFF 		bl	Timer1_Start
 162              	.LVL11:
  49:main.c        ****     
 163              		.loc 1 49 0
 164 0014 0120     		movs	r0, #1
 165 0016 FFF7FEFF 		bl	Enable_Set
 166              	.LVL12:
 167              	.L12:
  53:main.c        ****     }
 168              		.loc 1 53 0 discriminator 1
 169 001a FFF7FEFF 		bl	usb_Tick
ARM GAS  C:\Users\BRIAN~1.SEA\AppData\Local\Temp\cc01n2CY.s 			page 7


 170              	.LVL13:
 171 001e FCE7     		b	.L12
 172              	.L15:
 173              		.align	2
 174              	.L14:
 175 0020 00000000 		.word	.LANCHOR0
 176 0024 00000000 		.word	usbHidOutEpHandler
 177              		.cfi_endproc
 178              	.LFE64:
 179              		.size	main, .-main
 180              		.section	.text.Direction_Set,"ax",%progbits
 181              		.align	2
 182              		.global	Direction_Set
 183              		.thumb
 184              		.thumb_func
 185              		.type	Direction_Set, %function
 186              	Direction_Set:
 187              	.LFB69:
 168:main.c        **** }
 169:main.c        **** void Direction_Set( CYBIT OnOff )
 170:main.c        **** {
 188              		.loc 1 170 0
 189              		.cfi_startproc
 190              		@ args = 0, pretend = 0, frame = 0
 191              		@ frame_needed = 0, uses_anonymous_args = 0
 192              	.LVL14:
 193 0000 10B5     		push	{r4, lr}
 194              		.cfi_def_cfa_offset 8
 195              		.cfi_offset 4, -8
 196              		.cfi_offset 14, -4
 197 0002 0446     		mov	r4, r0
 171:main.c        ****     uint8   CurrentVal;
 172:main.c        ****     CurrentVal = EnableAndDirection_Read();                                 // Read current LED set
 198              		.loc 1 172 0
 199 0004 FFF7FEFF 		bl	EnableAndDirection_Read
 200              	.LVL15:
 173:main.c        ****     if(OnOff)
 201              		.loc 1 173 0
 202 0008 1CB1     		cbz	r4, .L17
 174:main.c        ****     {
 175:main.c        ****         CurrentVal |= 0b00000010;
 203              		.loc 1 175 0
 204 000a 40F00200 		orr	r0, r0, #2
 205              	.LVL16:
 206 000e C0B2     		uxtb	r0, r0
 207              	.LVL17:
 208 0010 01E0     		b	.L18
 209              	.L17:
 176:main.c        ****     }
 177:main.c        ****     else
 178:main.c        ****     {
 179:main.c        ****         CurrentVal &= ~0b00000010;
 210              		.loc 1 179 0
 211 0012 00F0FD00 		and	r0, r0, #253
 212              	.LVL18:
 213              	.L18:
 180:main.c        ****     }
ARM GAS  C:\Users\BRIAN~1.SEA\AppData\Local\Temp\cc01n2CY.s 			page 8


 181:main.c        ****     EnableAndDirection_Write( CurrentVal );
 214              		.loc 1 181 0
 215 0016 FFF7FEFF 		bl	EnableAndDirection_Write
 216              	.LVL19:
 217 001a 10BD     		pop	{r4, pc}
 218              		.cfi_endproc
 219              	.LFE69:
 220              		.size	Direction_Set, .-Direction_Set
 221              		.global	__aeabi_f2uiz
 222              		.global	__aeabi_fcmpgt
 223              		.global	__aeabi_fdiv
 224              		.section	.text.usbHidOutEpHandler,"ax",%progbits
 225              		.align	2
 226              		.global	usbHidOutEpHandler
 227              		.thumb
 228              		.thumb_func
 229              		.type	usbHidOutEpHandler, %function
 230              	usbHidOutEpHandler:
 231              	.LFB66:
  73:main.c        **** 	float floatVal1 = 0.0f;
 232              		.loc 1 73 0
 233              		.cfi_startproc
 234              		@ args = 0, pretend = 0, frame = 0
 235              		@ frame_needed = 0, uses_anonymous_args = 0
 236 0000 10B5     		push	{r4, lr}
 237              		.cfi_def_cfa_offset 8
 238              		.cfi_offset 4, -8
 239              		.cfi_offset 14, -4
 240              	.LVL20:
  77:main.c        **** 	{        
 241              		.loc 1 77 0
 242 0002 314B     		ldr	r3, .L36
 243 0004 93F84030 		ldrb	r3, [r3, #64]	@ zero_extendqisi2
 244 0008 042B     		cmp	r3, #4
 245 000a 50D8     		bhi	.L21
 246 000c DFE803F0 		tbb	[pc, r3]
 247              	.L23:
 248 0010 03       		.byte	(.L22-.L23)/2
 249 0011 14       		.byte	(.L24-.L23)/2
 250 0012 24       		.byte	(.L25-.L23)/2
 251 0013 3F       		.byte	(.L26-.L23)/2
 252 0014 4C       		.byte	(.L27-.L23)/2
 253 0015 00       		.p2align 1
 254              	.L22:
  81:main.c        ****             enable = (CYBIT)floatVal1;      
 255              		.loc 1 81 0
 256 0016 2C4B     		ldr	r3, .L36
 257 0018 D3F84100 		ldr	r0, [r3, #65]	@ unaligned
 258              	.LVL21:
  82:main.c        ****             if(!enable)
 259              		.loc 1 82 0
 260 001c FFF7FEFF 		bl	__aeabi_f2uiz
 261              	.LVL22:
 262 0020 C0B2     		uxtb	r0, r0
 263 0022 2A4B     		ldr	r3, .L36+4
 264 0024 1870     		strb	r0, [r3]
  83:main.c        ****             {
ARM GAS  C:\Users\BRIAN~1.SEA\AppData\Local\Temp\cc01n2CY.s 			page 9


 265              		.loc 1 83 0
 266 0026 18B9     		cbnz	r0, .L28
  85:main.c        ****             }
 267              		.loc 1 85 0
 268 0028 0120     		movs	r0, #1
 269 002a FFF7FEFF 		bl	Enable_Set
 270              	.LVL23:
 271 002e 3EE0     		b	.L21
 272              	.L28:
  89:main.c        ****             }     
 273              		.loc 1 89 0
 274 0030 0020     		movs	r0, #0
 275 0032 FFF7FEFF 		bl	Enable_Set
 276              	.LVL24:
 277 0036 3AE0     		b	.L21
 278              	.LVL25:
 279              	.L24:
  96:main.c        ****             direction = (CYBIT)floatVal1;      
 280              		.loc 1 96 0
 281 0038 234B     		ldr	r3, .L36
 282 003a D3F84100 		ldr	r0, [r3, #65]	@ unaligned
 283              	.LVL26:
  97:main.c        ****             if(!direction)
 284              		.loc 1 97 0
 285 003e FFF7FEFF 		bl	__aeabi_f2uiz
 286              	.LVL27:
 287 0042 C0B2     		uxtb	r0, r0
 288 0044 214B     		ldr	r3, .L36+4
 289 0046 5870     		strb	r0, [r3, #1]
  98:main.c        ****             {
 290              		.loc 1 98 0
 291 0048 10B9     		cbnz	r0, .L29
 100:main.c        ****             }
 292              		.loc 1 100 0
 293 004a FFF7FEFF 		bl	Direction_Set
 294              	.LVL28:
 295 004e 2EE0     		b	.L21
 296              	.L29:
 104:main.c        ****             }     
 297              		.loc 1 104 0
 298 0050 0120     		movs	r0, #1
 299 0052 FFF7FEFF 		bl	Direction_Set
 300              	.LVL29:
 301 0056 2AE0     		b	.L21
 302              	.LVL30:
 303              	.L25:
 111:main.c        ****             if(floatVal1 > 2.0f)
 304              		.loc 1 111 0
 305 0058 1B4B     		ldr	r3, .L36
 306 005a D3F84140 		ldr	r4, [r3, #65]	@ unaligned
 307              	.LVL31:
 112:main.c        ****             {
 308              		.loc 1 112 0
 309 005e 4FF08041 		mov	r1, #1073741824
 310 0062 2046     		mov	r0, r4
 311 0064 FFF7FEFF 		bl	__aeabi_fcmpgt
 312              	.LVL32:
ARM GAS  C:\Users\BRIAN~1.SEA\AppData\Local\Temp\cc01n2CY.s 			page 10


 313 0068 38B1     		cbz	r0, .L34
 114:main.c        ****             }
 314              		.loc 1 114 0
 315 006a 2046     		mov	r0, r4
 316 006c FFF7FEFF 		bl	__aeabi_f2uiz
 317              	.LVL33:
 318 0070 0238     		subs	r0, r0, #2
 319 0072 154B     		ldr	r3, .L36
 320 0074 C3F88000 		str	r0, [r3, #128]
 321 0078 03E0     		b	.L32
 322              	.L34:
 118:main.c        ****             }
 323              		.loc 1 118 0
 324 007a 0522     		movs	r2, #5
 325 007c 124B     		ldr	r3, .L36
 326 007e C3F88020 		str	r2, [r3, #128]
 327              	.L32:
 120:main.c        **** 			break;
 328              		.loc 1 120 0
 329 0082 114B     		ldr	r3, .L36
 330 0084 D3F88000 		ldr	r0, [r3, #128]
 331 0088 FFF7FEFF 		bl	Timer1_WritePeriod
 332              	.LVL34:
 121:main.c        ****         }
 333              		.loc 1 121 0
 334 008c 0FE0     		b	.L21
 335              	.LVL35:
 336              	.L26:
 337              	.LBB2:
 126:main.c        ****             divider = 100000.0f / floatVal1;
 338              		.loc 1 126 0
 339 008e 0E4B     		ldr	r3, .L36
 340 0090 D3F84110 		ldr	r1, [r3, #65]	@ unaligned
 341              	.LVL36:
 127:main.c        ****             Clock_1_SetDivider((uint16)((100000.0f/(floatVal1))));
 342              		.loc 1 127 0
 343 0094 0E48     		ldr	r0, .L36+8
 344 0096 FFF7FEFF 		bl	__aeabi_fdiv
 345              	.LVL37:
 128:main.c        ****             
 346              		.loc 1 128 0
 347 009a FFF7FEFF 		bl	__aeabi_f2uiz
 348              	.LVL38:
 349 009e 0121     		movs	r1, #1
 350 00a0 80B2     		uxth	r0, r0
 351 00a2 FFF7FEFF 		bl	Clock_1_SetDividerRegister
 352              	.LVL39:
 130:main.c        ****         }
 353              		.loc 1 130 0
 354 00a6 02E0     		b	.L21
 355              	.LVL40:
 356              	.L27:
 357              	.LBE2:
 134:main.c        ****     		
 358              		.loc 1 134 0
 359 00a8 0120     		movs	r0, #1
 360 00aa FFF7FEFF 		bl	TrigPulseTrain_Write
ARM GAS  C:\Users\BRIAN~1.SEA\AppData\Local\Temp\cc01n2CY.s 			page 11


 361              	.LVL41:
 362              	.L21:
 145:main.c        **** 	set_usbByteArray( floatValOut, 0u );
 363              		.loc 1 145 0
 364 00ae 4022     		movs	r2, #64
 365 00b0 0021     		movs	r1, #0
 366 00b2 0548     		ldr	r0, .L36
 367 00b4 FFF7FEFF 		bl	memset
 368              	.LVL42:
 146:main.c        **** 	usb_Load_EP1_Bulk_EP();
 369              		.loc 1 146 0
 370 00b8 0021     		movs	r1, #0
 371 00ba 0020     		movs	r0, #0
 372 00bc FFF7FEFF 		bl	set_usbByteArray
 373              	.LVL43:
 147:main.c        **** 
 374              		.loc 1 147 0
 375 00c0 FFF7FEFF 		bl	usb_Load_EP1_Bulk_EP
 376              	.LVL44:
 377 00c4 10BD     		pop	{r4, pc}
 378              	.L37:
 379 00c6 00BF     		.align	2
 380              	.L36:
 381 00c8 00000000 		.word	.LANCHOR0
 382 00cc 00000000 		.word	.LANCHOR1
 383 00d0 0050C347 		.word	1203982336
 384              		.cfi_endproc
 385              	.LFE66:
 386              		.size	usbHidOutEpHandler, .-usbHidOutEpHandler
 387              		.global	enable
 388              		.global	direction
 389              		.global	pulses
 390              		.data
 391              		.set	.LANCHOR1,. + 0
 392              		.type	enable, %object
 393              		.size	enable, 1
 394              	enable:
 395 0000 01       		.byte	1
 396              		.type	direction, %object
 397              		.size	direction, 1
 398              	direction:
 399 0001 01       		.byte	1
 400              		.bss
 401              		.align	2
 402              		.set	.LANCHOR0,. + 0
 403              		.type	IN_Data_Buffer, %object
 404              		.size	IN_Data_Buffer, 64
 405              	IN_Data_Buffer:
 406 0000 00000000 		.space	64
 406      00000000 
 406      00000000 
 406      00000000 
 406      00000000 
 407              		.type	OUT_Data_Buffer, %object
 408              		.size	OUT_Data_Buffer, 64
 409              	OUT_Data_Buffer:
 410 0040 00000000 		.space	64
ARM GAS  C:\Users\BRIAN~1.SEA\AppData\Local\Temp\cc01n2CY.s 			page 12


 410      00000000 
 410      00000000 
 410      00000000 
 410      00000000 
 411              		.type	pulses, %object
 412              		.size	pulses, 4
 413              	pulses:
 414 0080 00000000 		.space	4
 415              		.text
 416              	.Letext0:
 417              		.file 2 "c:\\program files (x86)\\cypress\\psoc creator\\4.1\\psoc creator\\import\\gnu\\arm\\5.4.
 418              		.file 3 "c:\\program files (x86)\\cypress\\psoc creator\\4.1\\psoc creator\\import\\gnu\\arm\\5.4.
 419              		.file 4 "Generated_Source\\PSoC5/cytypes.h"
 420              		.file 5 "Generated_Source\\PSoC5/core_cm3.h"
 421              		.file 6 "..\\AMC_Lib\\include/usb.h"
 422              		.file 7 "Generated_Source\\PSoC5/EnableAndDirection.h"
 423              		.file 8 "Generated_Source\\PSoC5/Timer1.h"
 424              		.file 9 "Generated_Source\\PSoC5/Clock_1.h"
 425              		.file 10 "Generated_Source\\PSoC5/TrigPulseTrain.h"